; Function Attrs: mustprogress uwtable
define noundef i64 @_ZN9syscall_t10sys_pwriteEmmmmmmm(ptr nocapture noundef nonnull readonly align 8 dereferenceable(176) %0, i64 noundef %1, i64 noundef %2, i64 noundef %3, i64 noundef %4, i64 %5, i64 %6, i64 %7) #3 align 2 personality ptr @__gxx_personality_v0 {
  %9 = alloca %"class.std::vector.40", align 8
  %10 = alloca %"class.std::allocator.20", align 1
  call void @_ZNSaIcEC1Ev(ptr noundef nonnull align 1 dereferenceable(1) %10) #26
  invoke void @_ZNSt6vectorIcSaIcEEC2EmRKS0_(ptr noundef nonnull align 8 dereferenceable(24) %9, i64 noundef %3, ptr noundef nonnull align 1 dereferenceable(1) %10)
          to label %11 unwind label %45

11:                                               ; preds = %8
  call void @_ZNSaIcED1Ev(ptr noundef nonnull align 1 dereferenceable(1) %10) #26
  %12 = getelementptr inbounds i8, ptr %0, i64 64
  %13 = load ptr, ptr %12, align 8
  %14 = load ptr, ptr %9, align 8
  %15 = load ptr, ptr %13, align 8
  %16 = getelementptr inbounds i8, ptr %15, i64 16
  %17 = load ptr, ptr %16, align 8
  invoke void %17(ptr noundef nonnull align 8 dereferenceable(16) %13, i64 noundef %2, i64 noundef %3, ptr noundef %14)
          to label %18 unwind label %47

18:                                               ; preds = %11
  %19 = and i64 %1, 4294967295
  %20 = icmp eq i64 %19, 4294967196
  br i1 %20, label %_ZN5fds_t6lookupEm.exit, label %21

21:                                               ; preds = %18
  %22 = getelementptr inbounds i8, ptr %0, i64 96
  %23 = getelementptr inbounds i8, ptr %0, i64 104
  %24 = load ptr, ptr %23, align 8
  %25 = load ptr, ptr %22, align 8
  %26 = ptrtoint ptr %24 to i64
  %27 = ptrtoint ptr %25 to i64
  %28 = sub i64 %26, %27
  %29 = ashr exact i64 %28, 2
  %.not.i = icmp ugt i64 %29, %1
  br i1 %.not.i, label %30, label %_ZN5fds_t6lookupEm.exit

30:                                               ; preds = %21
  %31 = getelementptr inbounds i32, ptr %25, i64 %1
  %32 = load i32, ptr %31, align 4
  br label %_ZN5fds_t6lookupEm.exit

_ZN5fds_t6lookupEm.exit:                          ; preds = %18, %21, %30
  %.0.i = phi i32 [ -100, %18 ], [ %32, %30 ], [ -1, %21 ]
  %33 = load ptr, ptr %9, align 8
  %34 = invoke i64 @pwrite(i32 noundef %.0.i, ptr noundef %33, i64 noundef %3, i64 noundef %4)
          to label %35 unwind label %47

35:                                               ; preds = %_ZN5fds_t6lookupEm.exit
  %36 = icmp eq i64 %34, -1
  br i1 %36, label %37, label %_ZL12sysret_errnol.exit

37:                                               ; preds = %35
  %38 = tail call ptr @__errno_location() #30
  %39 = load i32, ptr %38, align 4
  %40 = sub nsw i32 0, %39
  %41 = sext i32 %40 to i64
  br label %_ZL12sysret_errnol.exit

_ZL12sysret_errnol.exit:                          ; preds = %35, %37
  %42 = phi i64 [ %41, %37 ], [ %34, %35 ]
  %43 = load ptr, ptr %9, align 8
  %.not.i.i.i = icmp eq ptr %43, null
  br i1 %.not.i.i.i, label %_ZNSt6vectorIcSaIcEED2Ev.exit, label %44

44:                                               ; preds = %_ZL12sysret_errnol.exit
  call void @_ZdlPv(ptr noundef nonnull %43) #29
  br label %_ZNSt6vectorIcSaIcEED2Ev.exit

_ZNSt6vectorIcSaIcEED2Ev.exit:                    ; preds = %_ZL12sysret_errnol.exit, %44
  call void @_ZNSaIcED2Ev(ptr noundef nonnull align 1 dereferenceable(1) %9) #26
  ret i64 %42

45:                                               ; preds = %8
  %46 = landingpad { ptr, i32 }
          cleanup
  call void @_ZNSaIcED1Ev(ptr noundef nonnull align 1 dereferenceable(1) %10) #26
  br label %49

47:                                               ; preds = %_ZN5fds_t6lookupEm.exit, %11
  %48 = landingpad { ptr, i32 }
          cleanup
  call void @_ZNSt6vectorIcSaIcEED2Ev(ptr noundef nonnull align 8 dereferenceable(24) %9) #26
  br label %49

49:                                               ; preds = %47, %45
  %.pn = phi { ptr, i32 } [ %48, %47 ], [ %46, %45 ]
  resume { ptr, i32 } %.pn
}